target datalayout = "e-m:e-p270:32:32-p271:32:32-p272:64:64-i64:64-i128:128-f80:128-n8:16:32:64-S128"
target triple = "x86_64-pc-linux-gnu"

; Function Attrs: nounwind uwtable
define ptr @Json_ReadPreprocess(ptr noundef %0, i32 noundef %1) #0 {
  %3 = alloca ptr, align 8
  %4 = alloca i32, align 4
  %5 = alloca ptr, align 8
  %6 = alloca i32, align 4
  %7 = alloca i32, align 4
  store ptr %0, ptr %3, align 8
  store i32 %1, ptr %4, align 4
  %8 = load i32, ptr %4, align 4
  %9 = mul nsw i32 3, %8
  %10 = sext i32 %9 to i64
  %11 = mul i64 1, %10
  %12 = call noalias ptr @malloc(i64 noundef %11) #10
  store ptr %12, ptr %5, align 8
  store i32 0, ptr %7, align 4
  store i32 0, ptr %6, align 4
  br label %13

13:                                               ; preds = %82, %2
  %14 = load i32, ptr %6, align 4
  %15 = load i32, ptr %4, align 4
  %16 = icmp slt i32 %14, %15
  br i1 %16, label %17, label %85

17:                                               ; preds = %13
  %18 = load ptr, ptr %3, align 8
  %19 = load i32, ptr %6, align 4
  %20 = sext i32 %19 to i64
  %21 = getelementptr inbounds i8, ptr %18, i64 %20
  %22 = load i8, ptr %21, align 1
  %23 = sext i8 %22 to i32
  %24 = icmp eq i32 %23, 123
  br i1 %24, label %49, label %25

25:                                               ; preds = %17
  %26 = load ptr, ptr %3, align 8
  %27 = load i32, ptr %6, align 4
  %28 = sext i32 %27 to i64
  %29 = getelementptr inbounds i8, ptr %26, i64 %28
  %30 = load i8, ptr %29, align 1
  %31 = sext i8 %30 to i32
  %32 = icmp eq i32 %31, 125
  br i1 %32, label %49, label %33

33:                                               ; preds = %25
  %34 = load ptr, ptr %3, align 8
  %35 = load i32, ptr %6, align 4
  %36 = sext i32 %35 to i64
  %37 = getelementptr inbounds i8, ptr %34, i64 %36
  %38 = load i8, ptr %37, align 1
  %39 = sext i8 %38 to i32
  %40 = icmp eq i32 %39, 91
  br i1 %40, label %49, label %41

41:                                               ; preds = %33
  %42 = load ptr, ptr %3, align 8
  %43 = load i32, ptr %6, align 4
  %44 = sext i32 %43 to i64
  %45 = getelementptr inbounds i8, ptr %42, i64 %44
  %46 = load i8, ptr %45, align 1
  %47 = sext i8 %46 to i32
  %48 = icmp eq i32 %47, 93
  br i1 %48, label %49, label %70

49:                                               ; preds = %41, %33, %25, %17
  %50 = load ptr, ptr %5, align 8
  %51 = load i32, ptr %7, align 4
  %52 = add nsw i32 %51, 1
  store i32 %52, ptr %7, align 4
  %53 = sext i32 %51 to i64
  %54 = getelementptr inbounds i8, ptr %50, i64 %53
  store i8 32, ptr %54, align 1
  %55 = load ptr, ptr %3, align 8
  %56 = load i32, ptr %6, align 4
  %57 = sext i32 %56 to i64
  %58 = getelementptr inbounds i8, ptr %55, i64 %57
  %59 = load i8, ptr %58, align 1
  %60 = load ptr, ptr %5, align 8
  %61 = load i32, ptr %7, align 4
  %62 = add nsw i32 %61, 1
  store i32 %62, ptr %7, align 4
  %63 = sext i32 %61 to i64
  %64 = getelementptr inbounds i8, ptr %60, i64 %63
  store i8 %59, ptr %64, align 1
  %65 = load ptr, ptr %5, align 8
  %66 = load i32, ptr %7, align 4
  %67 = add nsw i32 %66, 1
  store i32 %67, ptr %7, align 4
  %68 = sext i32 %66 to i64
  %69 = getelementptr inbounds i8, ptr %65, i64 %68
  store i8 32, ptr %69, align 1
  br label %81

70:                                               ; preds = %41
  %71 = load ptr, ptr %3, align 8
  %72 = load i32, ptr %6, align 4
  %73 = sext i32 %72 to i64
  %74 = getelementptr inbounds i8, ptr %71, i64 %73
  %75 = load i8, ptr %74, align 1
  %76 = load ptr, ptr %5, align 8
  %77 = load i32, ptr %7, align 4
  %78 = add nsw i32 %77, 1
  store i32 %78, ptr %7, align 4
  %79 = sext i32 %77 to i64
  %80 = getelementptr inbounds i8, ptr %76, i64 %79
  store i8 %75, ptr %80, align 1
  br label %81

81:                                               ; preds = %70, %49
  br label %82

82:                                               ; preds = %81
  %83 = load i32, ptr %6, align 4
  %84 = add nsw i32 %83, 1
  store i32 %84, ptr %6, align 4
  br label %13, !llvm.loop !9

85:                                               ; preds = %13
  %86 = load ptr, ptr %5, align 8
  %87 = load i32, ptr %7, align 4
  %88 = add nsw i32 %87, 1
  store i32 %88, ptr %7, align 4
  %89 = sext i32 %87 to i64
  %90 = getelementptr inbounds i8, ptr %86, i64 %89
  store i8 0, ptr %90, align 1
  %91 = load ptr, ptr %5, align 8
  ret ptr %91
}