; Function Attrs: nofree nounwind memory(write, argmem: read, inaccessiblemem: readwrite) uwtable
define noalias noundef ptr @Json_ReadPreprocess(ptr noundef readonly captures(none) %0, i32 noundef %1) local_unnamed_addr #4 {
  %3 = mul nsw i32 %1, 3
  %4 = sext i32 %3 to i64
  %5 = tail call noalias ptr @malloc(i64 noundef %4) #14
  %6 = icmp sgt i32 %1, 0
  br i1 %6, label %.lr.ph.preheader, label %._crit_edge

.lr.ph.preheader:                                 ; preds = %2
  %wide.trip.count = zext nneg i32 %1 to i64
  br label %.lr.ph

.lr.ph:                                           ; preds = %.lr.ph.preheader, %19
  %indvars.iv = phi i64 [ 0, %.lr.ph.preheader ], [ %indvars.iv.next, %19 ]
  %.029 = phi i32 [ 0, %.lr.ph.preheader ], [ %.1, %19 ]
  %7 = getelementptr inbounds nuw i8, ptr %0, i64 %indvars.iv
  %8 = load i8, ptr %7, align 1
  switch i8 %8, label %15 [
    i8 123, label %9
    i8 125, label %9
    i8 91, label %9
    i8 93, label %9
  ]

9:                                                ; preds = %.lr.ph, %.lr.ph, %.lr.ph, %.lr.ph
  %10 = sext i32 %.029 to i64
  %11 = getelementptr inbounds i8, ptr %5, i64 %10
  store i8 32, ptr %11, align 1
  %12 = getelementptr i8, ptr %11, i64 1
  store i8 %8, ptr %12, align 1
  %13 = add nsw i32 %.029, 3
  %14 = getelementptr i8, ptr %11, i64 2
  store i8 32, ptr %14, align 1
  br label %19

15:                                               ; preds = %.lr.ph
  %16 = add nsw i32 %.029, 1
  %17 = sext i32 %.029 to i64
  %18 = getelementptr inbounds i8, ptr %5, i64 %17
  store i8 %8, ptr %18, align 1
  br label %19

19:                                               ; preds = %9, %15
  %.1 = phi i32 [ %13, %9 ], [ %16, %15 ]
  %indvars.iv.next = add nuw nsw i64 %indvars.iv, 1
  %exitcond.not = icmp eq i64 %indvars.iv.next, %wide.trip.count
  br i1 %exitcond.not, label %._crit_edge.loopexit, label %.lr.ph, !llvm.loop !9

._crit_edge.loopexit:                             ; preds = %19
  %20 = sext i32 %.1 to i64
  br label %._crit_edge

._crit_edge:                                      ; preds = %._crit_edge.loopexit, %2
  %.0.lcssa = phi i64 [ 0, %2 ], [ %20, %._crit_edge.loopexit ]
  %21 = getelementptr inbounds i8, ptr %5, i64 %.0.lcssa
  store i8 0, ptr %21, align 1
  ret ptr %5
}